target datalayout = "e-m:e-p270:32:32-p271:32:32-p272:64:64-i64:64-i128:128-f80:128-n8:16:32:64-S128"
target triple = "x86_64-pc-linux-gnu"

%"class.pxrInternal_v0_24__pxrReserved__::TfCallContext" = type <{ ptr, ptr, i64, ptr, i8, [7 x i8] }>
%class.anon = type { i8 }

@.str = private unnamed_addr constant [125 x i8] c"generated/home/dtcxzyw/WorkSpace/Projects/compilers/llvm-opt-benchmark/bench/openusd/OpenUSD/pxr/base/tf/fastCompression.cpp\00", align 1
@__func__._ZN32pxrInternal_v0_24__pxrReserved__17TfFastCompression16CompressToBufferEPKcPcm = private unnamed_addr constant [17 x i8] c"CompressToBuffer\00", align 1
@__PRETTY_FUNCTION__._ZN32pxrInternal_v0_24__pxrReserved__17TfFastCompression16CompressToBufferEPKcPcm = private unnamed_addr constant [114 x i8] c"static size_t pxrInternal_v0_24__pxrReserved__::TfFastCompression::CompressToBuffer(const char *, char *, size_t)\00", align 1
@.str.1 = private unnamed_addr constant [81 x i8] c"Attempted to compress a buffer of %zu bytes, more than the maximum supported %zu\00", align 1

; Function Attrs: mustprogress uwtable
define internal void @"_ZZN32pxrInternal_v0_24__pxrReserved__17TfFastCompression16CompressToBufferEPKcPcmENK3$_0clERS2_RS3_m"(ptr noundef nonnull align 1 dereferenceable(1) %0, ptr noundef nonnull align 8 dereferenceable(8) %1, ptr noundef nonnull align 8 dereferenceable(8) %2, i64 noundef %3) #1 align 2 {
  %5 = alloca ptr, align 8
  %6 = alloca ptr, align 8
  %7 = alloca ptr, align 8
  %8 = alloca i64, align 8
  %9 = alloca ptr, align 8
  %10 = alloca i32, align 4
  store ptr %0, ptr %5, align 8
  store ptr %1, ptr %6, align 8
  store ptr %2, ptr %7, align 8
  store i64 %3, ptr %8, align 8
  %11 = load ptr, ptr %7, align 8
  %12 = load ptr, ptr %11, align 8
  store ptr %12, ptr %9, align 8
  %13 = load ptr, ptr %7, align 8
  %14 = load ptr, ptr %13, align 8
  %15 = getelementptr inbounds i8, ptr %14, i64 4
  store ptr %15, ptr %13, align 8
  %16 = load ptr, ptr %6, align 8
  %17 = load ptr, ptr %16, align 8
  %18 = load ptr, ptr %7, align 8
  %19 = load ptr, ptr %18, align 8
  %20 = load i64, ptr %8, align 8
  %21 = trunc i64 %20 to i32
  %22 = load i64, ptr %8, align 8
  %23 = trunc i64 %22 to i32
  %24 = call noundef i32 @_ZN32pxrInternal_v0_24__pxrReserved__7pxr_lz417LZ4_compressBoundEi(i32 noundef %23)
  %25 = call noundef i32 @_ZN32pxrInternal_v0_24__pxrReserved__7pxr_lz420LZ4_compress_defaultEPKcPcii(ptr noundef %17, ptr noundef %19, i32 noundef %21, i32 noundef %24)
  store i32 %25, ptr %10, align 4
  %26 = load ptr, ptr %9, align 8
  call void @llvm.memcpy.p0.p0.i64(ptr align 1 %26, ptr align 4 %10, i64 4, i1 false)
  %27 = load i32, ptr %10, align 4
  %28 = load ptr, ptr %7, align 8
  %29 = load ptr, ptr %28, align 8
  %30 = sext i32 %27 to i64
  %31 = getelementptr inbounds i8, ptr %29, i64 %30
  store ptr %31, ptr %28, align 8
  %32 = load i64, ptr %8, align 8
  %33 = load ptr, ptr %6, align 8
  %34 = load ptr, ptr %33, align 8
  %35 = getelementptr inbounds i8, ptr %34, i64 %32
  store ptr %35, ptr %33, align 8
  ret void
}

; Function Attrs: mustprogress nounwind uwtable
define linkonce_odr void @_ZN32pxrInternal_v0_24__pxrReserved__13TfCallContextC2EPKcS2_mS2_(ptr noundef nonnull align 8 dereferenceable(33) %0, ptr noundef %1, ptr noundef %2, i64 noundef %3, ptr noundef %4) unnamed_addr #0 comdat align 2 {
  %6 = alloca ptr, align 8
  %7 = alloca ptr, align 8
  %8 = alloca ptr, align 8
  %9 = alloca i64, align 8
  %10 = alloca ptr, align 8
  store ptr %0, ptr %6, align 8
  store ptr %1, ptr %7, align 8
  store ptr %2, ptr %8, align 8
  store i64 %3, ptr %9, align 8
  store ptr %4, ptr %10, align 8
  %11 = load ptr, ptr %6, align 8
  %12 = getelementptr inbounds nuw %"class.pxrInternal_v0_24__pxrReserved__::TfCallContext", ptr %11, i32 0, i32 0
  %13 = load ptr, ptr %7, align 8
  store ptr %13, ptr %12, align 8
  %14 = getelementptr inbounds nuw %"class.pxrInternal_v0_24__pxrReserved__::TfCallContext", ptr %11, i32 0, i32 1
  %15 = load ptr, ptr %8, align 8
  store ptr %15, ptr %14, align 8
  %16 = getelementptr inbounds nuw %"class.pxrInternal_v0_24__pxrReserved__::TfCallContext", ptr %11, i32 0, i32 2
  %17 = load i64, ptr %9, align 8
  store i64 %17, ptr %16, align 8
  %18 = getelementptr inbounds nuw %"class.pxrInternal_v0_24__pxrReserved__::TfCallContext", ptr %11, i32 0, i32 3
  %19 = load ptr, ptr %10, align 8
  store ptr %19, ptr %18, align 8
  %20 = getelementptr inbounds nuw %"class.pxrInternal_v0_24__pxrReserved__::TfCallContext", ptr %11, i32 0, i32 4
  store i8 0, ptr %20, align 8
  ret void
}

; Function Attrs: mustprogress nounwind uwtable
define noundef i64 @_ZN32pxrInternal_v0_24__pxrReserved__17TfFastCompression15GetMaxInputSizeEv() #0 align 2 {
  ret i64 268469010432
}

; Function Attrs: mustprogress uwtable
define noundef i64 @_ZN32pxrInternal_v0_24__pxrReserved__17TfFastCompression16CompressToBufferEPKcPcm(ptr noundef %0, ptr noundef %1, i64 noundef %2) #1 align 2 {
  %4 = alloca i64, align 8
  %5 = alloca ptr, align 8
  %6 = alloca ptr, align 8
  %7 = alloca i64, align 8
  %8 = alloca %"class.pxrInternal_v0_24__pxrReserved__::TfCallContext", align 8
  %9 = alloca ptr, align 8
  %10 = alloca i64, align 8
  %11 = alloca i64, align 8
  %12 = alloca %class.anon, align 1
  %13 = alloca i64, align 8
  store ptr %0, ptr %5, align 8
  store ptr %1, ptr %6, align 8
  store i64 %2, ptr %7, align 8
  %14 = load i64, ptr %7, align 8
  %15 = call noundef i64 @_ZN32pxrInternal_v0_24__pxrReserved__17TfFastCompression15GetMaxInputSizeEv()
  %16 = icmp ugt i64 %14, %15
  br i1 %16, label %17, label %20

17:                                               ; preds = %3
  call void @_ZN32pxrInternal_v0_24__pxrReserved__13TfCallContextC2EPKcS2_mS2_(ptr noundef nonnull align 8 dereferenceable(33) %8, ptr noundef @.str, ptr noundef @__func__._ZN32pxrInternal_v0_24__pxrReserved__17TfFastCompression16CompressToBufferEPKcPcm, i64 noundef 55, ptr noundef @__PRETTY_FUNCTION__._ZN32pxrInternal_v0_24__pxrReserved__17TfFastCompression16CompressToBufferEPKcPcm)
  %18 = load i64, ptr %7, align 8
  %19 = call noundef i64 @_ZN32pxrInternal_v0_24__pxrReserved__17TfFastCompression15GetMaxInputSizeEv()
  call void (ptr, i32, ptr, ...) @_ZN32pxrInternal_v0_24__pxrReserved__18Tf_PostErrorHelperERKNS_13TfCallContextENS_16TfDiagnosticTypeEPKcz(ptr noundef nonnull align 8 dereferenceable(33) %8, i32 noundef 1, ptr noundef @.str.1, i64 noundef %18, i64 noundef %19)
  store i64 0, ptr %4, align 8
  br label %74

20:                                               ; preds = %3
  %21 = load ptr, ptr %6, align 8
  store ptr %21, ptr %9, align 8
  %22 = load i64, ptr %7, align 8
  %23 = icmp ule i64 %22, 2113929216
  br i1 %23, label %24, label %40

24:                                               ; preds = %20
  %25 = load ptr, ptr %6, align 8
  %26 = getelementptr inbounds i8, ptr %25, i64 0
  store i8 0, ptr %26, align 1
  %27 = load ptr, ptr %5, align 8
  %28 = load ptr, ptr %6, align 8
  %29 = getelementptr inbounds i8, ptr %28, i64 1
  %30 = load i64, ptr %7, align 8
  %31 = trunc i64 %30 to i32
  %32 = load i64, ptr %7, align 8
  %33 = trunc i64 %32 to i32
  %34 = call noundef i32 @_ZN32pxrInternal_v0_24__pxrReserved__7pxr_lz417LZ4_compressBoundEi(i32 noundef %33)
  %35 = call noundef i32 @_ZN32pxrInternal_v0_24__pxrReserved__7pxr_lz420LZ4_compress_defaultEPKcPcii(ptr noundef %27, ptr noundef %29, i32 noundef %31, i32 noundef %34)
  %36 = add nsw i32 1, %35
  %37 = load ptr, ptr %6, align 8
  %38 = sext i32 %36 to i64
  %39 = getelementptr inbounds i8, ptr %37, i64 %38
  store ptr %39, ptr %6, align 8
  br label %68

40:                                               ; preds = %20
  %41 = load i64, ptr %7, align 8
  %42 = udiv i64 %41, 2113929216
  store i64 %42, ptr %10, align 8
  %43 = load i64, ptr %7, align 8
  %44 = urem i64 %43, 2113929216
  store i64 %44, ptr %11, align 8
  %45 = load i64, ptr %10, align 8
  %46 = load i64, ptr %11, align 8
  %47 = icmp ne i64 %46, 0
  %48 = select i1 %47, i32 1, i32 0
  %49 = sext i32 %48 to i64
  %50 = add i64 %45, %49
  %51 = trunc i64 %50 to i8
  %52 = load ptr, ptr %6, align 8
  %53 = getelementptr inbounds i8, ptr %52, i32 1
  store ptr %53, ptr %6, align 8
  store i8 %51, ptr %52, align 1
  store i64 0, ptr %13, align 8
  br label %54

54:                                               ; preds = %59, %40
  %55 = load i64, ptr %13, align 8
  %56 = load i64, ptr %10, align 8
  %57 = icmp ne i64 %55, %56
  br i1 %57, label %58, label %62

58:                                               ; preds = %54
  call void @"_ZZN32pxrInternal_v0_24__pxrReserved__17TfFastCompression16CompressToBufferEPKcPcmENK3$_0clERS2_RS3_m"(ptr noundef nonnull align 1 dereferenceable(1) %12, ptr noundef nonnull align 8 dereferenceable(8) %5, ptr noundef nonnull align 8 dereferenceable(8) %6, i64 noundef 2113929216)
  br label %59

59:                                               ; preds = %58
  %60 = load i64, ptr %13, align 8
  %61 = add i64 %60, 1
  store i64 %61, ptr %13, align 8
  br label %54, !llvm.loop !4

62:                                               ; preds = %54
  %63 = load i64, ptr %11, align 8
  %64 = icmp ne i64 %63, 0
  br i1 %64, label %65, label %67

65:                                               ; preds = %62
  %66 = load i64, ptr %11, align 8
  call void @"_ZZN32pxrInternal_v0_24__pxrReserved__17TfFastCompression16CompressToBufferEPKcPcmENK3$_0clERS2_RS3_m"(ptr noundef nonnull align 1 dereferenceable(1) %12, ptr noundef nonnull align 8 dereferenceable(8) %5, ptr noundef nonnull align 8 dereferenceable(8) %6, i64 noundef %66)
  br label %67

67:                                               ; preds = %65, %62
  br label %68

68:                                               ; preds = %67, %24
  %69 = load ptr, ptr %6, align 8
  %70 = load ptr, ptr %9, align 8
  %71 = ptrtoint ptr %69 to i64
  %72 = ptrtoint ptr %70 to i64
  %73 = sub i64 %71, %72
  store i64 %73, ptr %4, align 8
  br label %74

74:                                               ; preds = %68, %17
  %75 = load i64, ptr %4, align 8
  ret i64 %75
}