; Function Attrs: mustprogress uwtable
define noundef i64 @_ZN32pxrInternal_v0_24__pxrReserved__17TfFastCompression16CompressToBufferEPKcPcm(ptr noundef %0, ptr noundef %1, i64 noundef %2) local_unnamed_addr #1 align 2 {
  %4 = alloca %"class.pxrInternal_v0_24__pxrReserved__::TfCallContext", align 8
  %5 = icmp ugt i64 %2, 268469010432
  br i1 %5, label %6, label %11

6:                                                ; preds = %3
  store ptr @.str, ptr %4, align 8
  %7 = getelementptr inbounds nuw i8, ptr %4, i64 8
  store ptr @__func__._ZN32pxrInternal_v0_24__pxrReserved__17TfFastCompression16CompressToBufferEPKcPcm, ptr %7, align 8
  %8 = getelementptr inbounds nuw i8, ptr %4, i64 16
  store i64 55, ptr %8, align 8
  %9 = getelementptr inbounds nuw i8, ptr %4, i64 24
  store ptr @__PRETTY_FUNCTION__._ZN32pxrInternal_v0_24__pxrReserved__17TfFastCompression16CompressToBufferEPKcPcm, ptr %9, align 8
  %10 = getelementptr inbounds nuw i8, ptr %4, i64 32
  store i8 0, ptr %10, align 8
  call void (ptr, i32, ptr, ...) @_ZN32pxrInternal_v0_24__pxrReserved__18Tf_PostErrorHelperERKNS_13TfCallContextENS_16TfDiagnosticTypeEPKcz(ptr noundef nonnull align 8 dereferenceable(33) %4, i32 noundef 1, ptr noundef nonnull @.str.1, i64 noundef %2, i64 noundef 268469010432)
  br label %45

11:                                               ; preds = %3
  %12 = icmp ult i64 %2, 2113929217
  br i1 %12, label %13, label %.lr.ph.preheader

13:                                               ; preds = %11
  store i8 0, ptr %1, align 1
  %14 = getelementptr inbounds i8, ptr %1, i64 1
  %15 = trunc nuw nsw i64 %2 to i32
  %16 = tail call noundef i32 @_ZN32pxrInternal_v0_24__pxrReserved__7pxr_lz417LZ4_compressBoundEi(i32 noundef %15)
  %17 = tail call noundef i32 @_ZN32pxrInternal_v0_24__pxrReserved__7pxr_lz420LZ4_compress_defaultEPKcPcii(ptr noundef %0, ptr noundef nonnull %14, i32 noundef %15, i32 noundef %16)
  %18 = sext i32 %17 to i64
  %19 = getelementptr i8, ptr %1, i64 %18
  %20 = getelementptr i8, ptr %19, i64 1
  br label %41

.lr.ph.preheader:                                 ; preds = %11
  %21 = udiv i64 %2, 2113929216
  %22 = urem i64 %2, 2113929216
  %.not = icmp ne i64 %22, 0
  %23 = zext i1 %.not to i64
  %24 = add nuw nsw i64 %21, %23
  %25 = trunc nuw i64 %24 to i8
  store i8 %25, ptr %1, align 1
  %26 = getelementptr inbounds i8, ptr %1, i64 1
  br label %.lr.ph

.lr.ph:                                           ; preds = %.lr.ph.preheader, %.lr.ph
  %.036 = phi i64 [ %33, %.lr.ph ], [ 0, %.lr.ph.preheader ]
  %.135 = phi ptr [ %31, %.lr.ph ], [ %26, %.lr.ph.preheader ]
  %.03234 = phi ptr [ %32, %.lr.ph ], [ %0, %.lr.ph.preheader ]
  %27 = getelementptr inbounds i8, ptr %.135, i64 4
  %28 = tail call noundef i32 @_ZN32pxrInternal_v0_24__pxrReserved__7pxr_lz417LZ4_compressBoundEi(i32 noundef 2113929216)
  %29 = tail call noundef i32 @_ZN32pxrInternal_v0_24__pxrReserved__7pxr_lz420LZ4_compress_defaultEPKcPcii(ptr noundef %.03234, ptr noundef nonnull %27, i32 noundef 2113929216, i32 noundef %28)
  store i32 %29, ptr %.135, align 1
  %30 = sext i32 %29 to i64
  %31 = getelementptr inbounds i8, ptr %27, i64 %30
  %32 = getelementptr inbounds i8, ptr %.03234, i64 2113929216
  %33 = add nuw nsw i64 %.036, 1
  %.not18 = icmp eq i64 %33, %21
  br i1 %.not18, label %._crit_edge, label %.lr.ph, !llvm.loop !4

._crit_edge:                                      ; preds = %.lr.ph
  br i1 %.not, label %34, label %41

34:                                               ; preds = %._crit_edge
  %35 = getelementptr inbounds i8, ptr %31, i64 4
  %36 = trunc nuw nsw i64 %22 to i32
  %37 = tail call noundef i32 @_ZN32pxrInternal_v0_24__pxrReserved__7pxr_lz417LZ4_compressBoundEi(i32 noundef %36)
  %38 = tail call noundef i32 @_ZN32pxrInternal_v0_24__pxrReserved__7pxr_lz420LZ4_compress_defaultEPKcPcii(ptr noundef nonnull %32, ptr noundef nonnull %35, i32 noundef %36, i32 noundef %37)
  store i32 %38, ptr %31, align 1
  %39 = sext i32 %38 to i64
  %40 = getelementptr inbounds i8, ptr %35, i64 %39
  br label %41

41:                                               ; preds = %._crit_edge, %34, %13
  %.031 = phi ptr [ %20, %13 ], [ %40, %34 ], [ %31, %._crit_edge ]
  %42 = ptrtoint ptr %.031 to i64
  %43 = ptrtoint ptr %1 to i64
  %44 = sub i64 %42, %43
  br label %45

45:                                               ; preds = %41, %6
  %.015 = phi i64 [ 0, %6 ], [ %44, %41 ]
  ret i64 %.015
}